target datalayout = "e-m:e-p270:32:32-p271:32:32-p272:64:64-i64:64-i128:128-f80:128-n8:16:32:64-S128"
target triple = "x86_64-pc-linux-gnu"

%struct.pmix_output_stream_t = type { %struct.pmix_object_t, i32, i32, ptr, ptr, ptr, i8, i8, i8, i8, i8, i8, ptr }
%struct.pmix_object_t = type { %union.pthread_mutex_t, ptr, i32, %struct.pmix_tma }
%union.pthread_mutex_t = type { %struct.__pthread_mutex_s }
%struct.__pthread_mutex_s = type { i32, i32, i32, i32, i32, i16, i16, %struct.__pthread_internal_list }
%struct.__pthread_internal_list = type { ptr, ptr }
%struct.pmix_tma = type { ptr, ptr, ptr, ptr, ptr, ptr, ptr, ptr }

@.str.1 = private unnamed_addr constant [22 x i8] c"PMIX_OUTPUT_STDERR_FD\00", align 1
@default_stderr_fd = internal global i32 -1, align 4
@verbose = internal global %struct.pmix_output_stream_t zeroinitializer, align 8
@.str.9 = private unnamed_addr constant [11 x i8] c"[%s:%05d] \00", align 1

; Function Attrs: inlinehint nounwind willreturn memory(read) uwtable
define available_externally i32 @atoi(ptr noundef nonnull %0) #4 {
  %2 = alloca ptr, align 8
  store ptr %0, ptr %2, align 8, !tbaa !32
  %3 = load ptr, ptr %2, align 8, !tbaa !32
  %4 = call i64 @strtol(ptr noundef %3, ptr noundef null, i32 noundef 10) #12
  %5 = trunc i64 %4 to i32
  ret i32 %5
}

; Function Attrs: nounwind uwtable
define void @pmix_output_reopen_all() #0 {
  %1 = alloca ptr, align 8
  %2 = alloca [65 x i8], align 16
  %3 = alloca i32, align 4
  call void @llvm.lifetime.start.p0(i64 8, ptr %1) #12
  call void @llvm.lifetime.start.p0(i64 65, ptr %2) #12
  call void @llvm.memset.p0.i64(ptr align 16 %2, i8 0, i64 65, i1 false)
  %4 = call ptr @getenv(ptr noundef @.str.1) #12
  store ptr %4, ptr %1, align 8, !tbaa !32
  %5 = load ptr, ptr %1, align 8, !tbaa !32
  %6 = icmp ne ptr null, %5
  br i1 %6, label %7, label %10

7:                                                ; preds = %0
  %8 = load ptr, ptr %1, align 8, !tbaa !32
  %9 = call i32 @atoi(ptr noundef %8) #13
  store i32 %9, ptr @default_stderr_fd, align 4, !tbaa !33
  br label %11

10:                                               ; preds = %0
  store i32 -1, ptr @default_stderr_fd, align 4, !tbaa !33
  br label %11

11:                                               ; preds = %10, %7
  %12 = getelementptr inbounds [65 x i8], ptr %2, i64 0, i64 0
  %13 = call i32 @gethostname(ptr noundef %12, i64 noundef 65) #12
  %14 = load ptr, ptr getelementptr inbounds nuw (%struct.pmix_output_stream_t, ptr @verbose, i32 0, i32 4), align 8, !tbaa !20
  %15 = icmp ne ptr null, %14
  br i1 %15, label %16, label %18

16:                                               ; preds = %11
  %17 = load ptr, ptr getelementptr inbounds nuw (%struct.pmix_output_stream_t, ptr @verbose, i32 0, i32 4), align 8, !tbaa !20
  call void @free(ptr noundef %17) #12
  store ptr null, ptr getelementptr inbounds nuw (%struct.pmix_output_stream_t, ptr @verbose, i32 0, i32 4), align 8, !tbaa !20
  br label %18

18:                                               ; preds = %16, %11
  %19 = getelementptr inbounds [65 x i8], ptr %2, i64 0, i64 0
  %20 = call i32 @getpid() #12
  %21 = call i32 (ptr, ptr, ...) @asprintf(ptr noundef getelementptr inbounds nuw (%struct.pmix_output_stream_t, ptr @verbose, i32 0, i32 4), ptr noundef @.str.9, ptr noundef %19, i32 noundef %20) #12
  %22 = icmp sgt i32 0, %21
  br i1 %22, label %23, label %24

23:                                               ; preds = %18
  store ptr null, ptr getelementptr inbounds nuw (%struct.pmix_output_stream_t, ptr @verbose, i32 0, i32 4), align 8, !tbaa !20
  store i32 1, ptr %3, align 4
  br label %25

24:                                               ; preds = %18
  store i32 0, ptr %3, align 4
  br label %25

25:                                               ; preds = %24, %23
  call void @llvm.lifetime.end.p0(i64 65, ptr %2) #12
  call void @llvm.lifetime.end.p0(i64 8, ptr %1) #12
  %26 = load i32, ptr %3, align 4
  switch i32 %26, label %28 [
    i32 0, label %27
    i32 1, label %27
  ]

27:                                               ; preds = %25, %25
  ret void

28:                                               ; preds = %25
  unreachable
}