; Function Attrs: nounwind uwtable
define void @pmix_output_reopen_all() local_unnamed_addr #2 {
  %1 = alloca [65 x i8], align 16
  call void @llvm.lifetime.start.p0(i64 65, ptr nonnull %1) #22
  call void @llvm.memset.p0.i64(ptr noundef nonnull align 16 dereferenceable(65) %1, i8 0, i64 65, i1 false)
  %2 = tail call ptr @getenv(ptr noundef nonnull @.str.1) #22
  %.not = icmp eq ptr %2, null
  br i1 %.not, label %6, label %3

3:                                                ; preds = %0
  %4 = tail call i64 @strtol(ptr noundef nonnull captures(none) %2, ptr noundef null, i32 noundef 10) #22
  %5 = trunc i64 %4 to i32
  br label %6

6:                                                ; preds = %0, %3
  %storemerge = phi i32 [ %5, %3 ], [ -1, %0 ]
  store i32 %storemerge, ptr @default_stderr_fd, align 4, !tbaa !14
  %7 = call i32 @gethostname(ptr noundef nonnull %1, i64 noundef 65) #22
  %8 = load ptr, ptr getelementptr inbounds nuw (i8, ptr @verbose, i64 136), align 8, !tbaa !48
  %.not3 = icmp eq ptr %8, null
  br i1 %.not3, label %10, label %9

9:                                                ; preds = %6
  call void @free(ptr noundef nonnull %8) #22
  store ptr null, ptr getelementptr inbounds nuw (i8, ptr @verbose, i64 136), align 8, !tbaa !48
  br label %10

10:                                               ; preds = %9, %6
  %11 = call i32 @getpid() #22
  %12 = call i32 (ptr, ptr, ...) @asprintf(ptr noundef nonnull getelementptr inbounds nuw (i8, ptr @verbose, i64 136), ptr noundef nonnull @.str.9, ptr noundef nonnull %1, i32 noundef %11) #22
  %13 = icmp slt i32 %12, 0
  br i1 %13, label %14, label %15

14:                                               ; preds = %10
  store ptr null, ptr getelementptr inbounds nuw (i8, ptr @verbose, i64 136), align 8, !tbaa !48
  br label %15

15:                                               ; preds = %10, %14
  call void @llvm.lifetime.end.p0(i64 65, ptr nonnull %1) #22
  ret void
}